; Function Attrs: nounwind uwtable
define hidden range(i32 -2147483647, -2147483648) i32 @uv__getsockpeername(ptr noundef readonly captures(none) %0, ptr noundef readonly captures(none) %1, ptr noundef %2, ptr noundef captures(none) %3) local_unnamed_addr #0 {
  %5 = alloca i32, align 4
  call void @llvm.lifetime.start.p0(i64 4, ptr nonnull %5) #23
  %6 = getelementptr inbounds nuw i8, ptr %0, i64 16
  %7 = load i32, ptr %6, align 8
  %switch.tableidx = add i32 %7, -7
  %8 = icmp ult i32 %switch.tableidx, 9
  br i1 %8, label %switch.hole_check, label %uv_fileno.exit.thread

switch.hole_check:                                ; preds = %4
  %switch.maskindex = trunc nuw i32 %switch.tableidx to i16
  %switch.shifted = lshr i16 419, %switch.maskindex
  %switch.lobit = trunc i16 %switch.shifted to i1
  br i1 %switch.lobit, label %switch.lookup, label %uv_fileno.exit.thread

switch.lookup:                                    ; preds = %switch.hole_check
  %9 = zext nneg i32 %switch.tableidx to i64
  %switch.gep = getelementptr inbounds nuw [9 x i64], ptr @switch.table.uv__getsockpeername, i64 0, i64 %9
  %switch.load = load i64, ptr %switch.gep, align 8
  %10 = getelementptr inbounds nuw i8, ptr %0, i64 %switch.load
  %.0.i = load i32, ptr %10, align 8
  %11 = getelementptr inbounds nuw i8, ptr %0, i64 88
  %12 = load i32, ptr %11, align 8
  %13 = and i32 %12, 3
  %14 = icmp ne i32 %13, 0
  %15 = icmp eq i32 %.0.i, -1
  %or.cond.i = select i1 %14, i1 true, i1 %15
  br i1 %or.cond.i, label %uv_fileno.exit.thread, label %uv_fileno.exit

uv_fileno.exit:                                   ; preds = %switch.lookup
  %16 = load i32, ptr %3, align 4
  store i32 %16, ptr %5, align 4
  %17 = call i32 %1(i32 noundef %.0.i, ptr noundef %2, ptr noundef nonnull %5) #23
  %.not = icmp eq i32 %17, 0
  br i1 %.not, label %22, label %18

18:                                               ; preds = %uv_fileno.exit
  %19 = tail call ptr @__errno_location() #24
  %20 = load i32, ptr %19, align 4
  %21 = sub nsw i32 0, %20
  br label %uv_fileno.exit.thread

22:                                               ; preds = %uv_fileno.exit
  %23 = load i32, ptr %5, align 4
  store i32 %23, ptr %3, align 4
  br label %uv_fileno.exit.thread

uv_fileno.exit.thread:                            ; preds = %switch.hole_check, %4, %switch.lookup, %22, %18
  %.0 = phi i32 [ %21, %18 ], [ 0, %22 ], [ -9, %switch.lookup ], [ -22, %4 ], [ -22, %switch.hole_check ]
  call void @llvm.lifetime.end.p0(i64 4, ptr nonnull %5) #23
  ret i32 %.0
}